; Function Attrs: mustprogress uwtable
define internal noundef zeroext i1 @"_ZNSt17_Function_handlerIFbvEZN6google8protobuf2io7Printer9ValueImplILb1EE18ToStringOrCallbackIZNKS2_8compiler10objectivec14OneofGenerator37GeneratePublicCasePropertyDeclarationEPS4_E3$_0vEESt7variantIJNSt7__cxx1112basic_stringIcSt11char_traitsIcESaIcEEESt8functionIS0_EEEOT_NS6_5Rank2EEUlvE_E9_M_invokeERKSt9_Any_data"(ptr noundef nonnull readonly align 8 captures(none) dereferenceable(16) %__functor) #3 align 2 {
entry:
  %__functor.val = load ptr, ptr %__functor, align 8
  %0 = getelementptr inbounds nuw i8, ptr %__functor.val, i64 16
  %1 = load i8, ptr %0, align 8
  %tobool.i.i.i = trunc i8 %1 to i1
  br i1 %tobool.i.i.i, label %"_ZSt10__invoke_rIbRZN6google8protobuf2io7Printer9ValueImplILb1EE18ToStringOrCallbackIZNKS1_8compiler10objectivec14OneofGenerator37GeneratePublicCasePropertyDeclarationEPS3_E3$_0vEESt7variantIJNSt7__cxx1112basic_stringIcSt11char_traitsIcESaIcEEESt8functionIFbvEEEEOT_NS5_5Rank2EEUlvE_JEENSt9enable_ifIX16is_invocable_r_vISN_T0_DpT1_EESN_E4typeEOST_DpOSU_.exit", label %if.end.i.i.i

if.end.i.i.i:                                     ; preds = %entry
  store i8 1, ptr %0, align 8
  %this.val.i.i.i = load ptr, ptr %__functor.val, align 8
  %2 = getelementptr inbounds nuw i8, ptr %__functor.val, i64 8
  %this.val1.i.i.i = load ptr, ptr %2, align 8
  %this.val.val.i.i.i = load ptr, ptr %this.val.i.i.i, align 8
  %this.val1.val.i.i.i = load ptr, ptr %this.val1.i.i.i, align 8
  tail call void @_ZN6google8protobuf8compiler10objectivec18EmitCommentsStringINS0_15OneofDescriptorEEEvPNS0_2io7PrinterEPKT_NS2_18CommentStringFlagsE(ptr noundef %this.val.val.i.i.i, ptr noundef %this.val1.val.i.i.i, i32 noundef 0)
  store i8 0, ptr %0, align 8
  br label %"_ZSt10__invoke_rIbRZN6google8protobuf2io7Printer9ValueImplILb1EE18ToStringOrCallbackIZNKS1_8compiler10objectivec14OneofGenerator37GeneratePublicCasePropertyDeclarationEPS3_E3$_0vEESt7variantIJNSt7__cxx1112basic_stringIcSt11char_traitsIcESaIcEEESt8functionIFbvEEEEOT_NS5_5Rank2EEUlvE_JEENSt9enable_ifIX16is_invocable_r_vISN_T0_DpT1_EESN_E4typeEOST_DpOSU_.exit"

"_ZSt10__invoke_rIbRZN6google8protobuf2io7Printer9ValueImplILb1EE18ToStringOrCallbackIZNKS1_8compiler10objectivec14OneofGenerator37GeneratePublicCasePropertyDeclarationEPS3_E3$_0vEESt7variantIJNSt7__cxx1112basic_stringIcSt11char_traitsIcESaIcEEESt8functionIFbvEEEEOT_NS5_5Rank2EEUlvE_JEENSt9enable_ifIX16is_invocable_r_vISN_T0_DpT1_EESN_E4typeEOST_DpOSU_.exit": ; preds = %entry, %if.end.i.i.i
  %retval.0.i.i.i = xor i1 %tobool.i.i.i, true
  ret i1 %retval.0.i.i.i
}